; Function Attrs: mustprogress uwtable
define hidden void @_ZN4cvc58internal5proof11LfscPrinter5printERSoNS0_12NodeTemplateILb1EEE(ptr noundef nonnull align 8 dereferenceable(312) %0, ptr noundef nonnull align 8 dereferenceable(8) %1, ptr noundef readonly captures(none) %2) local_unnamed_addr #3 align 2 personality ptr @__gxx_personality_v0 {
  %4 = alloca %"class.cvc5::internal::NodeTemplate", align 8
  %5 = alloca %"class.cvc5::internal::NodeTemplate", align 8
  %6 = alloca %"class.cvc5::internal::NodeTemplate", align 8
  call void @llvm.lifetime.start.p0(i64 8, ptr nonnull %4) #23
  %7 = getelementptr inbounds nuw i8, ptr %0, i64 16
  %8 = load ptr, ptr %7, align 8, !tbaa !57
  %9 = load ptr, ptr %2, align 8, !tbaa !13
  store ptr %9, ptr %5, align 8, !tbaa !13
  %10 = load i64, ptr %9, align 8
  %11 = lshr i64 %10, 40
  %12 = trunc nuw nsw i64 %11 to i32
  %13 = and i32 %12, 1048575
  %14 = icmp samesign ult i32 %13, 1048574
  br i1 %14, label %15, label %20, !prof !56

15:                                               ; preds = %3
  %16 = add i64 %10, 1099511627776
  %17 = and i64 %16, 1152920405095219200
  %18 = and i64 %10, -1152920405095219201
  %19 = or disjoint i64 %17, %18
  store i64 %19, ptr %9, align 8
  br label %_ZN4cvc58internal12NodeTemplateILb1EEC2ERKS2_.exit

20:                                               ; preds = %3
  %21 = icmp eq i32 %13, 1048574
  br i1 %21, label %22, label %_ZN4cvc58internal12NodeTemplateILb1EEC2ERKS2_.exit, !prof !55

22:                                               ; preds = %20
  %23 = or i64 %10, 1152920405095219200
  store i64 %23, ptr %9, align 8
  tail call void @_ZN4cvc58internal4expr9NodeValue20markRefCountMaxedOutEv(ptr noundef nonnull align 8 dereferenceable(24) %9)
  br label %_ZN4cvc58internal12NodeTemplateILb1EEC2ERKS2_.exit

_ZN4cvc58internal12NodeTemplateILb1EEC2ERKS2_.exit: ; preds = %15, %20, %22
  invoke void @_ZN4cvc58internal13NodeConverter7convertENS0_12NodeTemplateILb1EEEb(ptr dead_on_unwind nonnull writable sret(%"class.cvc5::internal::NodeTemplate") align 8 %4, ptr noundef nonnull align 8 dereferenceable(241) %8, ptr noundef nonnull %5, i1 noundef zeroext true)
          to label %24 unwind label %79

24:                                               ; preds = %_ZN4cvc58internal12NodeTemplateILb1EEC2ERKS2_.exit
  %25 = load ptr, ptr %5, align 8, !tbaa !13
  %26 = load i64, ptr %25, align 8
  %27 = and i64 %26, 1152920405095219200
  %.not.i.i = icmp eq i64 %27, 1152920405095219200
  br i1 %.not.i.i, label %_ZN4cvc58internal12NodeTemplateILb1EED2Ev.exit, label %28, !prof !55

28:                                               ; preds = %24
  %29 = add i64 %26, 1152920405095219200
  %30 = and i64 %29, 1152920405095219200
  %31 = and i64 %26, -1152920405095219201
  %32 = or disjoint i64 %30, %31
  store i64 %32, ptr %25, align 8
  %33 = icmp eq i64 %30, 0
  br i1 %33, label %34, label %_ZN4cvc58internal12NodeTemplateILb1EED2Ev.exit, !prof !55

34:                                               ; preds = %28
  invoke void @_ZN4cvc58internal4expr9NodeValue15markForDeletionEv(ptr noundef nonnull align 8 dereferenceable(24) %25)
          to label %_ZN4cvc58internal12NodeTemplateILb1EED2Ev.exit unwind label %35

35:                                               ; preds = %34
  %36 = landingpad { ptr, i32 }
          catch ptr null
  %37 = extractvalue { ptr, i32 } %36, 0
  call void @__clang_call_terminate(ptr %37) #25
  unreachable

_ZN4cvc58internal12NodeTemplateILb1EED2Ev.exit:   ; preds = %24, %28, %34
  %38 = load ptr, ptr %4, align 8, !tbaa !13
  store ptr %38, ptr %6, align 8, !tbaa !13
  %39 = load i64, ptr %38, align 8
  %40 = lshr i64 %39, 40
  %41 = trunc nuw nsw i64 %40 to i32
  %42 = and i32 %41, 1048575
  %43 = icmp samesign ult i32 %42, 1048574
  br i1 %43, label %44, label %49, !prof !56

44:                                               ; preds = %_ZN4cvc58internal12NodeTemplateILb1EED2Ev.exit
  %45 = add i64 %39, 1099511627776
  %46 = and i64 %45, 1152920405095219200
  %47 = and i64 %39, -1152920405095219201
  %48 = or disjoint i64 %46, %47
  store i64 %48, ptr %38, align 8
  br label %_ZN4cvc58internal12NodeTemplateILb1EEC2ERKS2_.exit7

49:                                               ; preds = %_ZN4cvc58internal12NodeTemplateILb1EED2Ev.exit
  %50 = icmp eq i32 %42, 1048574
  br i1 %50, label %51, label %_ZN4cvc58internal12NodeTemplateILb1EEC2ERKS2_.exit7, !prof !55

51:                                               ; preds = %49
  %52 = or i64 %39, 1152920405095219200
  store i64 %52, ptr %38, align 8
  invoke void @_ZN4cvc58internal4expr9NodeValue20markRefCountMaxedOutEv(ptr noundef nonnull align 8 dereferenceable(24) %38)
          to label %_ZN4cvc58internal12NodeTemplateILb1EEC2ERKS2_.exit7 unwind label %81

_ZN4cvc58internal12NodeTemplateILb1EEC2ERKS2_.exit7: ; preds = %49, %44, %51
  invoke void @_ZN4cvc58internal5proof11LfscPrinter11printLetifyERSoNS0_12NodeTemplateILb1EEE(ptr noundef nonnull align 8 dereferenceable(312) %0, ptr noundef nonnull align 8 dereferenceable(8) %1, ptr noundef nonnull %6)
          to label %53 unwind label %83

53:                                               ; preds = %_ZN4cvc58internal12NodeTemplateILb1EEC2ERKS2_.exit7
  %54 = load i64, ptr %38, align 8
  %55 = and i64 %54, 1152920405095219200
  %.not.i.i8 = icmp eq i64 %55, 1152920405095219200
  br i1 %.not.i.i8, label %_ZN4cvc58internal12NodeTemplateILb1EED2Ev.exit9, label %56, !prof !55

56:                                               ; preds = %53
  %57 = add i64 %54, 1152920405095219200
  %58 = and i64 %57, 1152920405095219200
  %59 = and i64 %54, -1152920405095219201
  %60 = or disjoint i64 %58, %59
  store i64 %60, ptr %38, align 8
  %61 = icmp eq i64 %58, 0
  br i1 %61, label %62, label %_ZN4cvc58internal12NodeTemplateILb1EED2Ev.exit9, !prof !55

62:                                               ; preds = %56
  invoke void @_ZN4cvc58internal4expr9NodeValue15markForDeletionEv(ptr noundef nonnull align 8 dereferenceable(24) %38)
          to label %_ZN4cvc58internal12NodeTemplateILb1EED2Ev.exit9 unwind label %63

63:                                               ; preds = %62
  %64 = landingpad { ptr, i32 }
          catch ptr null
  %65 = extractvalue { ptr, i32 } %64, 0
  call void @__clang_call_terminate(ptr %65) #25
  unreachable

_ZN4cvc58internal12NodeTemplateILb1EED2Ev.exit9:  ; preds = %53, %56, %62
  %66 = load ptr, ptr %4, align 8, !tbaa !13
  %67 = load i64, ptr %66, align 8
  %68 = and i64 %67, 1152920405095219200
  %.not.i.i10 = icmp eq i64 %68, 1152920405095219200
  br i1 %.not.i.i10, label %_ZN4cvc58internal12NodeTemplateILb1EED2Ev.exit11, label %69, !prof !55

69:                                               ; preds = %_ZN4cvc58internal12NodeTemplateILb1EED2Ev.exit9
  %70 = add i64 %67, 1152920405095219200
  %71 = and i64 %70, 1152920405095219200
  %72 = and i64 %67, -1152920405095219201
  %73 = or disjoint i64 %71, %72
  store i64 %73, ptr %66, align 8
  %74 = icmp eq i64 %71, 0
  br i1 %74, label %75, label %_ZN4cvc58internal12NodeTemplateILb1EED2Ev.exit11, !prof !55

75:                                               ; preds = %69
  invoke void @_ZN4cvc58internal4expr9NodeValue15markForDeletionEv(ptr noundef nonnull align 8 dereferenceable(24) %66)
          to label %_ZN4cvc58internal12NodeTemplateILb1EED2Ev.exit11 unwind label %76

76:                                               ; preds = %75
  %77 = landingpad { ptr, i32 }
          catch ptr null
  %78 = extractvalue { ptr, i32 } %77, 0
  call void @__clang_call_terminate(ptr %78) #25
  unreachable

_ZN4cvc58internal12NodeTemplateILb1EED2Ev.exit11: ; preds = %_ZN4cvc58internal12NodeTemplateILb1EED2Ev.exit9, %69, %75
  call void @llvm.lifetime.end.p0(i64 8, ptr nonnull %4) #23
  ret void

79:                                               ; preds = %_ZN4cvc58internal12NodeTemplateILb1EEC2ERKS2_.exit
  %80 = landingpad { ptr, i32 }
          cleanup
  br label %85

81:                                               ; preds = %51
  %82 = landingpad { ptr, i32 }
          cleanup
  br label %85

83:                                               ; preds = %_ZN4cvc58internal12NodeTemplateILb1EEC2ERKS2_.exit7
  %84 = landingpad { ptr, i32 }
          cleanup
  call void @_ZN4cvc58internal12NodeTemplateILb1EED2Ev(ptr noundef nonnull align 8 dereferenceable(8) %6) #23
  br label %85

85:                                               ; preds = %81, %83, %79
  %.sink = phi ptr [ %5, %79 ], [ %4, %83 ], [ %4, %81 ]
  %.pn.pn = phi { ptr, i32 } [ %80, %79 ], [ %84, %83 ], [ %82, %81 ]
  call void @_ZN4cvc58internal12NodeTemplateILb1EED2Ev(ptr noundef nonnull align 8 dereferenceable(8) %.sink) #23
  call void @llvm.lifetime.end.p0(i64 8, ptr nonnull %4) #23
  resume { ptr, i32 } %.pn.pn
}